ccopy_reg
_reconstructor
p0
(csklearn.preprocessing.label
LabelEncoder
p1
c__builtin__
object
p2
Ntp3
Rp4
(dp5
S'classes_'
p6
cnumpy.core.multiarray
_reconstruct
p7
(cnumpy
ndarray
p8
(I0
tp9
S'b'
p10
tp11
Rp12
(I1
(I11
tp13
cnumpy
dtype
p14
(S'O8'
p15
I0
I1
tp16
Rp17
(I3
S'|'
p18
NNNI-1
I-1
I63
tp19
bI00
(lp20
S'cel]'
p21
aS'cla]'
p22
aS'flu]'
p23
aS'gac]'
p24
aS'gel]'
p25
aS'org]'
p26
aS'pia]'
p27
aS'sax]'
p28
aS'tru]'
p29
aS'vio]'
p30
aS'voi]'
p31
atp32
bsb.